; ModuleID = 'source-C-CXX/56/2504.c'
source_filename = "source-C-CXX/56/2504.c"
target datalayout = "e-m:e-p270:32:32-p271:32:32-p272:64:64-i64:64-f80:128-n8:16:32:64-S128"
target triple = "x86_64-pc-linux-gnu"

@.str = private unnamed_addr constant [3 x i8] c"%d\00", align 1
@.str.1 = private unnamed_addr constant [3 x i8] c"%s\00", align 1

; Function Attrs: nofree nounwind sspstrong uwtable
define dso_local i32 @main() local_unnamed_addr #0 {
  %1 = alloca i32, align 4
  %2 = alloca [53 x [35 x i8]], align 16
  %3 = bitcast i32* %1 to i8*
  call void @llvm.lifetime.start.p0i8(i64 4, i8* nonnull %3) #5
  %4 = call i32 (i8*, ...) @__isoc99_scanf(i8* getelementptr inbounds ([3 x i8], [3 x i8]* @.str, i64 0, i64 0), i32* nonnull %1)
  %5 = getelementptr inbounds [53 x [35 x i8]], [53 x [35 x i8]]* %2, i64 0, i64 0, i64 0
  call void @llvm.lifetime.start.p0i8(i64 1855, i8* nonnull %5) #5
  %6 = load i32, i32* %1, align 4, !tbaa !5
  %7 = icmp sgt i32 %6, 0
  br i1 %7, label %8, label %28

8:                                                ; preds = %0, %22
  %9 = phi i64 [ %24, %22 ], [ 0, %0 ]
  %10 = getelementptr inbounds [53 x [35 x i8]], [53 x [35 x i8]]* %2, i64 0, i64 %9
  %11 = call i32 (i8*, ...) @__isoc99_scanf(i8* getelementptr inbounds ([3 x i8], [3 x i8]* @.str.1, i64 0, i64 0), [35 x i8]* nonnull %10)
  %12 = getelementptr inbounds [35 x i8], [35 x i8]* %10, i64 0, i64 0
  %13 = call i64 @strlen(i8* noundef nonnull %12) #6
  %14 = add i64 %13, -1
  %15 = getelementptr inbounds [53 x [35 x i8]], [53 x [35 x i8]]* %2, i64 0, i64 %9, i64 %14
  %16 = load i8, i8* %15, align 1, !tbaa !9
  switch i8 %16, label %22 [
    i8 114, label %18
    i8 121, label %18
    i8 103, label %17
  ]

17:                                               ; preds = %8
  br label %18

18:                                               ; preds = %8, %8, %17
  %19 = phi i64 [ -3, %17 ], [ -2, %8 ], [ -2, %8 ]
  %20 = add i64 %13, %19
  %21 = getelementptr inbounds [53 x [35 x i8]], [53 x [35 x i8]]* %2, i64 0, i64 %9, i64 %20
  store i8 0, i8* %21, align 1, !tbaa !9
  br label %22

22:                                               ; preds = %18, %8
  %23 = call i32 @puts(i8* nonnull %12)
  %24 = add nuw nsw i64 %9, 1
  %25 = load i32, i32* %1, align 4, !tbaa !5
  %26 = sext i32 %25 to i64
  %27 = icmp slt i64 %24, %26
  br i1 %27, label %8, label %28, !llvm.loop !10

28:                                               ; preds = %22, %0
  call void @llvm.lifetime.end.p0i8(i64 1855, i8* nonnull %5) #5
  call void @llvm.lifetime.end.p0i8(i64 4, i8* nonnull %3) #5
  ret i32 0
}

; Function Attrs: argmemonly mustprogress nofree nosync nounwind willreturn
declare void @llvm.lifetime.start.p0i8(i64 immarg, i8* nocapture) #1

; Function Attrs: nofree nounwind
declare noundef i32 @__isoc99_scanf(i8* nocapture noundef readonly, ...) local_unnamed_addr #2

; Function Attrs: argmemonly mustprogress nofree nounwind readonly willreturn
declare i64 @strlen(i8* nocapture) local_unnamed_addr #3

; Function Attrs: argmemonly mustprogress nofree nosync nounwind willreturn
declare void @llvm.lifetime.end.p0i8(i64 immarg, i8* nocapture) #1

; Function Attrs: nofree nounwind
declare noundef i32 @puts(i8* nocapture noundef readonly) local_unnamed_addr #4


!llvm.module.flags = !{!0, !1, !2, !3}
!llvm.ident = !{!4}

!0 = !{i32 1, !"wchar_size", i32 4}
!1 = !{i32 7, !"PIC Level", i32 2}
!2 = !{i32 7, !"PIE Level", i32 2}
!3 = !{i32 7, !"uwtable", i32 1}
!4 = !{!"clang version 13.0.0"}
!5 = !{!6, !6, i64 0}
!6 = !{!"int", !7, i64 0}
!7 = !{!"omnipotent char", !8, i64 0}
!8 = !{!"Simple C/C++ TBAA"}
!9 = !{!7, !7, i64 0}
!10 = distinct !{!10, !11}
!11 = !{!"llvm.loop.mustprogress"}
